target datalayout = "e-m:e-p270:32:32-p271:32:32-p272:64:64-i64:64-i128:128-f80:128-n8:16:32:64-S128"
target triple = "x86_64-pc-linux-gnu"

@rb_eArgError = external global i64, align 8
@RB_IO_BUFFER_DATA_TYPE_U8 = internal global i64 0, align 8
@RB_IO_BUFFER_DATA_TYPE_S8 = internal global i64 0, align 8
@RB_IO_BUFFER_DATA_TYPE_u16 = internal global i64 0, align 8
@RB_IO_BUFFER_DATA_TYPE_U16 = internal global i64 0, align 8
@RB_IO_BUFFER_DATA_TYPE_s16 = internal global i64 0, align 8
@RB_IO_BUFFER_DATA_TYPE_S16 = internal global i64 0, align 8
@RB_IO_BUFFER_DATA_TYPE_u32 = internal global i64 0, align 8
@RB_IO_BUFFER_DATA_TYPE_U32 = internal global i64 0, align 8
@RB_IO_BUFFER_DATA_TYPE_s32 = internal global i64 0, align 8
@RB_IO_BUFFER_DATA_TYPE_S32 = internal global i64 0, align 8
@RB_IO_BUFFER_DATA_TYPE_u64 = internal global i64 0, align 8
@RB_IO_BUFFER_DATA_TYPE_U64 = internal global i64 0, align 8
@RB_IO_BUFFER_DATA_TYPE_s64 = internal global i64 0, align 8
@RB_IO_BUFFER_DATA_TYPE_S64 = internal global i64 0, align 8
@RB_IO_BUFFER_DATA_TYPE_f32 = internal global i64 0, align 8
@RB_IO_BUFFER_DATA_TYPE_F32 = internal global i64 0, align 8
@RB_IO_BUFFER_DATA_TYPE_f64 = internal global i64 0, align 8
@RB_IO_BUFFER_DATA_TYPE_F64 = internal global i64 0, align 8
@.str.131 = private unnamed_addr constant [26 x i8] c"Offset can't be negative!\00", align 1
@.str.134 = private unnamed_addr constant [49 x i8] c"The given offset is bigger than the buffer size!\00", align 1
@.str.137 = private unnamed_addr constant [19 x i8] c"Invalid type name!\00", align 1
@.str.140 = private unnamed_addr constant [25 x i8] c"Count can't be negative!\00", align 1

; Function Attrs: inlinehint nounwind sspstrong willreturn memory(none) uwtable
define internal i64 @rbimpl_fix2long_by_idiv(i64 noundef %0) #11 {
  %2 = alloca i64, align 8
  %3 = alloca i64, align 8
  %4 = alloca i64, align 8
  %5 = alloca i64, align 8
  store i64 %0, ptr %2, align 8, !tbaa !20
  call void @llvm.lifetime.start.p0(i64 8, ptr %3) #22
  %6 = load i64, ptr %2, align 8, !tbaa !20
  %7 = sub i64 %6, 1
  store i64 %7, ptr %3, align 8, !tbaa !20
  call void @llvm.lifetime.start.p0(i64 8, ptr %4) #22
  %8 = load i64, ptr %3, align 8, !tbaa !20
  %9 = sdiv i64 %8, 2
  store i64 %9, ptr %4, align 8, !tbaa !20
  call void @llvm.lifetime.start.p0(i64 8, ptr %5) #22
  %10 = load i64, ptr %4, align 8, !tbaa !20
  store i64 %10, ptr %5, align 8, !tbaa !20
  %11 = load i64, ptr %5, align 8, !tbaa !20
  call void @llvm.lifetime.end.p0(i64 8, ptr %5) #22
  call void @llvm.lifetime.end.p0(i64 8, ptr %4) #22
  call void @llvm.lifetime.end.p0(i64 8, ptr %3) #22
  ret i64 %11
}

; Function Attrs: inlinehint nounwind sspstrong willreturn memory(none) uwtable
define internal i64 @rbimpl_fix2long_by_shift(i64 noundef %0) #11 {
  %2 = alloca i64, align 8
  %3 = alloca i64, align 8
  %4 = alloca i64, align 8
  %5 = alloca i64, align 8
  store i64 %0, ptr %2, align 8, !tbaa !20
  call void @llvm.lifetime.start.p0(i64 8, ptr %3) #22
  %6 = load i64, ptr %2, align 8, !tbaa !20
  store i64 %6, ptr %3, align 8, !tbaa !20
  call void @llvm.lifetime.start.p0(i64 8, ptr %4) #22
  %7 = load i64, ptr %3, align 8, !tbaa !20
  %8 = ashr i64 %7, 1
  store i64 %8, ptr %4, align 8, !tbaa !20
  call void @llvm.lifetime.start.p0(i64 8, ptr %5) #22
  %9 = load i64, ptr %4, align 8, !tbaa !20
  store i64 %9, ptr %5, align 8, !tbaa !20
  %10 = load i64, ptr %5, align 8, !tbaa !20
  call void @llvm.lifetime.end.p0(i64 8, ptr %5) #22
  call void @llvm.lifetime.end.p0(i64 8, ptr %4) #22
  call void @llvm.lifetime.end.p0(i64 8, ptr %3) #22
  ret i64 %10
}

; Function Attrs: inlinehint nounwind sspstrong willreturn memory(none) uwtable
define internal zeroext i1 @rbimpl_right_shift_is_arithmetic_p() #11 {
  ret i1 true
}

; Function Attrs: inlinehint nounwind sspstrong willreturn memory(none) uwtable
define internal i64 @rb_fix2long(i64 noundef %0) #11 {
  %2 = alloca i64, align 8
  %3 = alloca i64, align 8
  store i64 %0, ptr %3, align 8, !tbaa !20
  %4 = call zeroext i1 @rbimpl_right_shift_is_arithmetic_p() #24
  br i1 %4, label %5, label %8

5:                                                ; preds = %1
  %6 = load i64, ptr %3, align 8, !tbaa !20
  %7 = call i64 @rbimpl_fix2long_by_shift(i64 noundef %6) #24
  store i64 %7, ptr %2, align 8
  br label %11

8:                                                ; preds = %1
  %9 = load i64, ptr %3, align 8, !tbaa !20
  %10 = call i64 @rbimpl_fix2long_by_idiv(i64 noundef %9) #24
  store i64 %10, ptr %2, align 8
  br label %11

11:                                               ; preds = %8, %5
  %12 = load i64, ptr %2, align 8
  ret i64 %12
}

; Function Attrs: inlinehint nounwind sspstrong willreturn memory(none) uwtable
define internal zeroext i1 @RB_FIXNUM_P(i64 noundef %0) #11 {
  %2 = alloca i64, align 8
  store i64 %0, ptr %2, align 8, !tbaa !20
  %3 = load i64, ptr %2, align 8, !tbaa !20
  %4 = and i64 %3, 1
  %5 = icmp ne i64 %4, 0
  ret i1 %5
}

; Function Attrs: inlinehint nounwind sspstrong uwtable
define internal i64 @rb_num2ull_inline(i64 noundef %0) #3 {
  %2 = alloca i64, align 8
  %3 = alloca i64, align 8
  store i64 %0, ptr %3, align 8, !tbaa !20
  %4 = load i64, ptr %3, align 8, !tbaa !20
  %5 = call zeroext i1 @RB_FIXNUM_P(i64 noundef %4) #24
  br i1 %5, label %6, label %9

6:                                                ; preds = %1
  %7 = load i64, ptr %3, align 8, !tbaa !20
  %8 = call i64 @rb_fix2long(i64 noundef %7) #24
  store i64 %8, ptr %2, align 8
  br label %12

9:                                                ; preds = %1
  %10 = load i64, ptr %3, align 8, !tbaa !20
  %11 = call i64 @rb_num2ull(i64 noundef %10)
  store i64 %11, ptr %2, align 8
  br label %12

12:                                               ; preds = %9, %6
  %13 = load i64, ptr %2, align 8
  ret i64 %13
}

; Function Attrs: inlinehint nounwind sspstrong uwtable
define internal i64 @io_buffer_buffer_type_size(i64 noundef %0) #3 {
  %2 = alloca i64, align 8
  %3 = alloca i64, align 8
  store i64 %0, ptr %3, align 8, !tbaa !20
  %4 = load i64, ptr %3, align 8, !tbaa !20
  %5 = load i64, ptr @RB_IO_BUFFER_DATA_TYPE_U8, align 8, !tbaa !20
  %6 = icmp eq i64 %4, %5
  br i1 %6, label %7, label %8

7:                                                ; preds = %1
  store i64 1, ptr %2, align 8
  br label %95

8:                                                ; preds = %1
  %9 = load i64, ptr %3, align 8, !tbaa !20
  %10 = load i64, ptr @RB_IO_BUFFER_DATA_TYPE_S8, align 8, !tbaa !20
  %11 = icmp eq i64 %9, %10
  br i1 %11, label %12, label %13

12:                                               ; preds = %8
  store i64 1, ptr %2, align 8
  br label %95

13:                                               ; preds = %8
  %14 = load i64, ptr %3, align 8, !tbaa !20
  %15 = load i64, ptr @RB_IO_BUFFER_DATA_TYPE_u16, align 8, !tbaa !20
  %16 = icmp eq i64 %14, %15
  br i1 %16, label %17, label %18

17:                                               ; preds = %13
  store i64 2, ptr %2, align 8
  br label %95

18:                                               ; preds = %13
  %19 = load i64, ptr %3, align 8, !tbaa !20
  %20 = load i64, ptr @RB_IO_BUFFER_DATA_TYPE_U16, align 8, !tbaa !20
  %21 = icmp eq i64 %19, %20
  br i1 %21, label %22, label %23

22:                                               ; preds = %18
  store i64 2, ptr %2, align 8
  br label %95

23:                                               ; preds = %18
  %24 = load i64, ptr %3, align 8, !tbaa !20
  %25 = load i64, ptr @RB_IO_BUFFER_DATA_TYPE_s16, align 8, !tbaa !20
  %26 = icmp eq i64 %24, %25
  br i1 %26, label %27, label %28

27:                                               ; preds = %23
  store i64 2, ptr %2, align 8
  br label %95

28:                                               ; preds = %23
  %29 = load i64, ptr %3, align 8, !tbaa !20
  %30 = load i64, ptr @RB_IO_BUFFER_DATA_TYPE_S16, align 8, !tbaa !20
  %31 = icmp eq i64 %29, %30
  br i1 %31, label %32, label %33

32:                                               ; preds = %28
  store i64 2, ptr %2, align 8
  br label %95

33:                                               ; preds = %28
  %34 = load i64, ptr %3, align 8, !tbaa !20
  %35 = load i64, ptr @RB_IO_BUFFER_DATA_TYPE_u32, align 8, !tbaa !20
  %36 = icmp eq i64 %34, %35
  br i1 %36, label %37, label %38

37:                                               ; preds = %33
  store i64 4, ptr %2, align 8
  br label %95

38:                                               ; preds = %33
  %39 = load i64, ptr %3, align 8, !tbaa !20
  %40 = load i64, ptr @RB_IO_BUFFER_DATA_TYPE_U32, align 8, !tbaa !20
  %41 = icmp eq i64 %39, %40
  br i1 %41, label %42, label %43

42:                                               ; preds = %38
  store i64 4, ptr %2, align 8
  br label %95

43:                                               ; preds = %38
  %44 = load i64, ptr %3, align 8, !tbaa !20
  %45 = load i64, ptr @RB_IO_BUFFER_DATA_TYPE_s32, align 8, !tbaa !20
  %46 = icmp eq i64 %44, %45
  br i1 %46, label %47, label %48

47:                                               ; preds = %43
  store i64 4, ptr %2, align 8
  br label %95

48:                                               ; preds = %43
  %49 = load i64, ptr %3, align 8, !tbaa !20
  %50 = load i64, ptr @RB_IO_BUFFER_DATA_TYPE_S32, align 8, !tbaa !20
  %51 = icmp eq i64 %49, %50
  br i1 %51, label %52, label %53

52:                                               ; preds = %48
  store i64 4, ptr %2, align 8
  br label %95

53:                                               ; preds = %48
  %54 = load i64, ptr %3, align 8, !tbaa !20
  %55 = load i64, ptr @RB_IO_BUFFER_DATA_TYPE_u64, align 8, !tbaa !20
  %56 = icmp eq i64 %54, %55
  br i1 %56, label %57, label %58

57:                                               ; preds = %53
  store i64 8, ptr %2, align 8
  br label %95

58:                                               ; preds = %53
  %59 = load i64, ptr %3, align 8, !tbaa !20
  %60 = load i64, ptr @RB_IO_BUFFER_DATA_TYPE_U64, align 8, !tbaa !20
  %61 = icmp eq i64 %59, %60
  br i1 %61, label %62, label %63

62:                                               ; preds = %58
  store i64 8, ptr %2, align 8
  br label %95

63:                                               ; preds = %58
  %64 = load i64, ptr %3, align 8, !tbaa !20
  %65 = load i64, ptr @RB_IO_BUFFER_DATA_TYPE_s64, align 8, !tbaa !20
  %66 = icmp eq i64 %64, %65
  br i1 %66, label %67, label %68

67:                                               ; preds = %63
  store i64 8, ptr %2, align 8
  br label %95

68:                                               ; preds = %63
  %69 = load i64, ptr %3, align 8, !tbaa !20
  %70 = load i64, ptr @RB_IO_BUFFER_DATA_TYPE_S64, align 8, !tbaa !20
  %71 = icmp eq i64 %69, %70
  br i1 %71, label %72, label %73

72:                                               ; preds = %68
  store i64 8, ptr %2, align 8
  br label %95

73:                                               ; preds = %68
  %74 = load i64, ptr %3, align 8, !tbaa !20
  %75 = load i64, ptr @RB_IO_BUFFER_DATA_TYPE_f32, align 8, !tbaa !20
  %76 = icmp eq i64 %74, %75
  br i1 %76, label %77, label %78

77:                                               ; preds = %73
  store i64 4, ptr %2, align 8
  br label %95

78:                                               ; preds = %73
  %79 = load i64, ptr %3, align 8, !tbaa !20
  %80 = load i64, ptr @RB_IO_BUFFER_DATA_TYPE_F32, align 8, !tbaa !20
  %81 = icmp eq i64 %79, %80
  br i1 %81, label %82, label %83

82:                                               ; preds = %78
  store i64 4, ptr %2, align 8
  br label %95

83:                                               ; preds = %78
  %84 = load i64, ptr %3, align 8, !tbaa !20
  %85 = load i64, ptr @RB_IO_BUFFER_DATA_TYPE_f64, align 8, !tbaa !20
  %86 = icmp eq i64 %84, %85
  br i1 %86, label %87, label %88

87:                                               ; preds = %83
  store i64 8, ptr %2, align 8
  br label %95

88:                                               ; preds = %83
  %89 = load i64, ptr %3, align 8, !tbaa !20
  %90 = load i64, ptr @RB_IO_BUFFER_DATA_TYPE_F64, align 8, !tbaa !20
  %91 = icmp eq i64 %89, %90
  br i1 %91, label %92, label %93

92:                                               ; preds = %88
  store i64 8, ptr %2, align 8
  br label %95

93:                                               ; preds = %88
  %94 = load i64, ptr @rb_eArgError, align 8, !tbaa !20
  call void (i64, ptr, ...) @rb_raise(i64 noundef %94, ptr noundef @.str.137) #26
  unreachable

95:                                               ; preds = %92, %87, %82, %77, %72, %67, %62, %57, %52, %47, %42, %37, %32, %27, %22, %17, %12, %7
  %96 = load i64, ptr %2, align 8
  ret i64 %96
}

; Function Attrs: inlinehint nounwind sspstrong uwtable
define internal i64 @io_buffer_extract_count(i64 noundef %0) #3 {
  %2 = alloca i64, align 8
  store i64 %0, ptr %2, align 8, !tbaa !20
  %3 = load i64, ptr %2, align 8, !tbaa !20
  %4 = call i32 @rb_int_negative_p(i64 noundef %3)
  %5 = icmp ne i32 %4, 0
  br i1 %5, label %6, label %8

6:                                                ; preds = %1
  %7 = load i64, ptr @rb_eArgError, align 8, !tbaa !20
  call void (i64, ptr, ...) @rb_raise(i64 noundef %7, ptr noundef @.str.140) #26
  unreachable

8:                                                ; preds = %1
  %9 = load i64, ptr %2, align 8, !tbaa !20
  %10 = call i64 @rb_num2ull_inline(i64 noundef %9)
  ret i64 %10
}

; Function Attrs: inlinehint nounwind sspstrong uwtable
define internal i64 @io_buffer_extract_offset(i64 noundef %0) #3 {
  %2 = alloca i64, align 8
  store i64 %0, ptr %2, align 8, !tbaa !20
  %3 = load i64, ptr %2, align 8, !tbaa !20
  %4 = call i32 @rb_int_negative_p(i64 noundef %3)
  %5 = icmp ne i32 %4, 0
  br i1 %5, label %6, label %8

6:                                                ; preds = %1
  %7 = load i64, ptr @rb_eArgError, align 8, !tbaa !20
  call void (i64, ptr, ...) @rb_raise(i64 noundef %7, ptr noundef @.str.131) #26
  unreachable

8:                                                ; preds = %1
  %9 = load i64, ptr %2, align 8, !tbaa !20
  %10 = call i64 @rb_num2ull_inline(i64 noundef %9)
  ret i64 %10
}

; Function Attrs: inlinehint nounwind sspstrong uwtable
define internal void @io_buffer_extract_offset_count(i64 noundef %0, i64 noundef %1, i32 noundef %2, ptr noundef %3, ptr noundef %4, ptr noundef %5) #3 {
  %7 = alloca i64, align 8
  %8 = alloca i64, align 8
  %9 = alloca i32, align 4
  %10 = alloca ptr, align 8
  %11 = alloca ptr, align 8
  %12 = alloca ptr, align 8
  store i64 %0, ptr %7, align 8, !tbaa !20
  store i64 %1, ptr %8, align 8, !tbaa !20
  store i32 %2, ptr %9, align 4, !tbaa !32
  store ptr %3, ptr %10, align 8, !tbaa !33
  store ptr %4, ptr %11, align 8, !tbaa !33
  store ptr %5, ptr %12, align 8, !tbaa !33
  %13 = load i32, ptr %9, align 4, !tbaa !32
  %14 = icmp sge i32 %13, 1
  br i1 %14, label %15, label %21

15:                                               ; preds = %6
  %16 = load ptr, ptr %10, align 8, !tbaa !33
  %17 = getelementptr i64, ptr %16, i64 0
  %18 = load i64, ptr %17, align 8, !tbaa !20
  %19 = call i64 @io_buffer_extract_offset(i64 noundef %18)
  %20 = load ptr, ptr %11, align 8, !tbaa !33
  store i64 %19, ptr %20, align 8, !tbaa !20
  br label %23

21:                                               ; preds = %6
  %22 = load ptr, ptr %11, align 8, !tbaa !33
  store i64 0, ptr %22, align 8, !tbaa !20
  br label %23

23:                                               ; preds = %21, %15
  %24 = load i32, ptr %9, align 4, !tbaa !32
  %25 = icmp sge i32 %24, 2
  br i1 %25, label %26, label %32

26:                                               ; preds = %23
  %27 = load ptr, ptr %10, align 8, !tbaa !33
  %28 = getelementptr i64, ptr %27, i64 1
  %29 = load i64, ptr %28, align 8, !tbaa !20
  %30 = call i64 @io_buffer_extract_count(i64 noundef %29)
  %31 = load ptr, ptr %12, align 8, !tbaa !33
  store i64 %30, ptr %31, align 8, !tbaa !20
  br label %48

32:                                               ; preds = %23
  %33 = load ptr, ptr %11, align 8, !tbaa !33
  %34 = load i64, ptr %33, align 8, !tbaa !20
  %35 = load i64, ptr %8, align 8, !tbaa !20
  %36 = icmp ugt i64 %34, %35
  br i1 %36, label %37, label %39

37:                                               ; preds = %32
  %38 = load i64, ptr @rb_eArgError, align 8, !tbaa !20
  call void (i64, ptr, ...) @rb_raise(i64 noundef %38, ptr noundef @.str.134) #26
  unreachable

39:                                               ; preds = %32
  %40 = load i64, ptr %8, align 8, !tbaa !20
  %41 = load ptr, ptr %11, align 8, !tbaa !33
  %42 = load i64, ptr %41, align 8, !tbaa !20
  %43 = sub i64 %40, %42
  %44 = load i64, ptr %7, align 8, !tbaa !20
  %45 = call i64 @io_buffer_buffer_type_size(i64 noundef %44)
  %46 = udiv i64 %43, %45
  %47 = load ptr, ptr %12, align 8, !tbaa !33
  store i64 %46, ptr %47, align 8, !tbaa !20
  br label %48

48:                                               ; preds = %39, %26
  ret void
}