; Function Attrs: inlinehint nounwind sspstrong uwtable
define internal fastcc void @io_buffer_extract_offset_count(i64 noundef %0, i64 noundef %1, i32 noundef %2, ptr noundef readonly captures(none) %3, ptr noundef nonnull writeonly captures(none) %4, ptr noundef nonnull writeonly captures(none) %5) unnamed_addr #18 {
  %7 = icmp sgt i32 %2, 0
  br i1 %7, label %8, label %.thread

.thread:                                          ; preds = %6
  store i64 0, ptr %4, align 8, !tbaa !22
  br label %35

8:                                                ; preds = %6
  %9 = load i64, ptr %3, align 8, !tbaa !22
  %10 = tail call i32 @rb_int_negative_p(i64 noundef %9) #25
  %.not.i = icmp eq i32 %10, 0
  br i1 %.not.i, label %13, label %11

11:                                               ; preds = %8
  %12 = load i64, ptr @rb_eArgError, align 8, !tbaa !22
  tail call void (i64, ptr, ...) @rb_raise(i64 noundef %12, ptr noundef nonnull @.str.131) #26
  unreachable

13:                                               ; preds = %8
  %14 = and i64 %9, 1
  %.not.i.i = icmp eq i64 %14, 0
  br i1 %.not.i.i, label %17, label %15

15:                                               ; preds = %13
  %16 = ashr i64 %9, 1
  br label %io_buffer_extract_offset.exit

17:                                               ; preds = %13
  %18 = tail call i64 @rb_num2ull(i64 noundef %9) #25
  br label %io_buffer_extract_offset.exit

io_buffer_extract_offset.exit:                    ; preds = %17, %15
  %storemerge = phi i64 [ %16, %15 ], [ %18, %17 ]
  store i64 %storemerge, ptr %4, align 8, !tbaa !22
  %.not = icmp eq i32 %2, 1
  br i1 %.not, label %31, label %19

19:                                               ; preds = %io_buffer_extract_offset.exit
  %20 = getelementptr i8, ptr %3, i64 8
  %21 = load i64, ptr %20, align 8, !tbaa !22
  %22 = tail call i32 @rb_int_negative_p(i64 noundef %21) #25
  %.not.i14 = icmp eq i32 %22, 0
  br i1 %.not.i14, label %25, label %23

23:                                               ; preds = %19
  %24 = load i64, ptr @rb_eArgError, align 8, !tbaa !22
  tail call void (i64, ptr, ...) @rb_raise(i64 noundef %24, ptr noundef nonnull @.str.140) #26
  unreachable

25:                                               ; preds = %19
  %26 = and i64 %21, 1
  %.not.i.i15 = icmp eq i64 %26, 0
  br i1 %.not.i.i15, label %29, label %27

27:                                               ; preds = %25
  %28 = ashr i64 %21, 1
  br label %io_buffer_extract_count.exit

29:                                               ; preds = %25
  %30 = tail call i64 @rb_num2ull(i64 noundef %21) #25
  br label %io_buffer_extract_count.exit

31:                                               ; preds = %io_buffer_extract_offset.exit
  %32 = icmp ugt i64 %storemerge, %1
  br i1 %32, label %33, label %35

33:                                               ; preds = %31
  %34 = load i64, ptr @rb_eArgError, align 8, !tbaa !22
  tail call void (i64, ptr, ...) @rb_raise(i64 noundef %34, ptr noundef nonnull @.str.134) #26
  unreachable

35:                                               ; preds = %.thread, %31
  %storemerge1820 = phi i64 [ 0, %.thread ], [ %storemerge, %31 ]
  %36 = sub nuw i64 %1, %storemerge1820
  %37 = load i64, ptr @RB_IO_BUFFER_DATA_TYPE_U8, align 8, !tbaa !22
  %38 = icmp eq i64 %0, %37
  %39 = load i64, ptr @RB_IO_BUFFER_DATA_TYPE_S8, align 8
  %40 = icmp eq i64 %0, %39
  %or.cond.i = select i1 %38, i1 true, i1 %40
  br i1 %or.cond.i, label %io_buffer_buffer_type_size.exit, label %41

41:                                               ; preds = %35
  %42 = load i64, ptr @RB_IO_BUFFER_DATA_TYPE_u16, align 8, !tbaa !22
  %43 = icmp eq i64 %0, %42
  %44 = load i64, ptr @RB_IO_BUFFER_DATA_TYPE_U16, align 8
  %45 = icmp eq i64 %0, %44
  %or.cond22.i = select i1 %43, i1 true, i1 %45
  %46 = load i64, ptr @RB_IO_BUFFER_DATA_TYPE_s16, align 8
  %47 = icmp eq i64 %0, %46
  %or.cond24.i = select i1 %or.cond22.i, i1 true, i1 %47
  %48 = load i64, ptr @RB_IO_BUFFER_DATA_TYPE_S16, align 8
  %49 = icmp eq i64 %0, %48
  %or.cond26.i = select i1 %or.cond24.i, i1 true, i1 %49
  br i1 %or.cond26.i, label %io_buffer_buffer_type_size.exit, label %50

50:                                               ; preds = %41
  %51 = load i64, ptr @RB_IO_BUFFER_DATA_TYPE_u32, align 8, !tbaa !22
  %52 = icmp eq i64 %0, %51
  %53 = load i64, ptr @RB_IO_BUFFER_DATA_TYPE_U32, align 8
  %54 = icmp eq i64 %0, %53
  %or.cond28.i = select i1 %52, i1 true, i1 %54
  %55 = load i64, ptr @RB_IO_BUFFER_DATA_TYPE_s32, align 8
  %56 = icmp eq i64 %0, %55
  %or.cond30.i = select i1 %or.cond28.i, i1 true, i1 %56
  %57 = load i64, ptr @RB_IO_BUFFER_DATA_TYPE_S32, align 8
  %58 = icmp eq i64 %0, %57
  %or.cond32.i = select i1 %or.cond30.i, i1 true, i1 %58
  br i1 %or.cond32.i, label %io_buffer_buffer_type_size.exit, label %59

59:                                               ; preds = %50
  %60 = load i64, ptr @RB_IO_BUFFER_DATA_TYPE_u64, align 8, !tbaa !22
  %61 = icmp eq i64 %0, %60
  %62 = load i64, ptr @RB_IO_BUFFER_DATA_TYPE_U64, align 8
  %63 = icmp eq i64 %0, %62
  %or.cond34.i = select i1 %61, i1 true, i1 %63
  %64 = load i64, ptr @RB_IO_BUFFER_DATA_TYPE_s64, align 8
  %65 = icmp eq i64 %0, %64
  %or.cond36.i = select i1 %or.cond34.i, i1 true, i1 %65
  %66 = load i64, ptr @RB_IO_BUFFER_DATA_TYPE_S64, align 8
  %67 = icmp eq i64 %0, %66
  %or.cond38.i = select i1 %or.cond36.i, i1 true, i1 %67
  br i1 %or.cond38.i, label %io_buffer_buffer_type_size.exit, label %68

68:                                               ; preds = %59
  %69 = load i64, ptr @RB_IO_BUFFER_DATA_TYPE_f32, align 8, !tbaa !22
  %70 = icmp eq i64 %0, %69
  %71 = load i64, ptr @RB_IO_BUFFER_DATA_TYPE_F32, align 8
  %72 = icmp eq i64 %0, %71
  %or.cond40.i = select i1 %70, i1 true, i1 %72
  br i1 %or.cond40.i, label %io_buffer_buffer_type_size.exit, label %73

73:                                               ; preds = %68
  %74 = load i64, ptr @RB_IO_BUFFER_DATA_TYPE_f64, align 8, !tbaa !22
  %75 = icmp eq i64 %0, %74
  %76 = load i64, ptr @RB_IO_BUFFER_DATA_TYPE_F64, align 8
  %77 = icmp eq i64 %0, %76
  %or.cond42.i = select i1 %75, i1 true, i1 %77
  br i1 %or.cond42.i, label %io_buffer_buffer_type_size.exit, label %78

78:                                               ; preds = %73
  %79 = load i64, ptr @rb_eArgError, align 8, !tbaa !22
  tail call void (i64, ptr, ...) @rb_raise(i64 noundef %79, ptr noundef nonnull @.str.137) #26
  unreachable

io_buffer_buffer_type_size.exit:                  ; preds = %35, %41, %50, %59, %68, %73
  %.0.i = phi i64 [ 1, %35 ], [ 2, %41 ], [ 4, %50 ], [ 8, %59 ], [ 4, %68 ], [ 8, %73 ]
  %80 = tail call range(i64 0, 65) i64 @llvm.cttz.i64(i64 %.0.i, i1 true)
  %81 = lshr i64 %36, %80
  br label %io_buffer_extract_count.exit

io_buffer_extract_count.exit:                     ; preds = %29, %27, %io_buffer_buffer_type_size.exit
  %storemerge13 = phi i64 [ %81, %io_buffer_buffer_type_size.exit ], [ %28, %27 ], [ %30, %29 ]
  store i64 %storemerge13, ptr %5, align 8, !tbaa !22
  ret void
}